; Function Attrs: nounwind uwtable
define internal ptr @lxb_html_tokenizer_state_char_ref_numeric(ptr nocapture noundef %0, ptr noundef readonly %1, ptr noundef readnone %2) #1 {
  %4 = getelementptr inbounds i8, ptr %0, i64 220
  store i32 0, ptr %4, align 4
  %5 = load i8, ptr %1, align 1
  switch i8 %5, label %32 [
    i8 120, label %6
    i8 88, label %6
  ]

6:                                                ; preds = %3, %3
  %7 = getelementptr inbounds i8, ptr %0, i64 136
  %8 = load ptr, ptr %7, align 8
  %9 = getelementptr inbounds i8, ptr %8, i64 1
  %10 = getelementptr inbounds i8, ptr %0, i64 144
  %11 = load ptr, ptr %10, align 8
  %12 = icmp ugt ptr %9, %11
  br i1 %12, label %13, label %27

13:                                               ; preds = %6
  %14 = getelementptr inbounds i8, ptr %0, i64 128
  %15 = load ptr, ptr %14, align 8
  %16 = ptrtoint ptr %15 to i64
  %17 = ptrtoint ptr %11 to i64
  %18 = add i64 %17, 4097
  %19 = sub i64 %18, %16
  %20 = tail call ptr @lexbor_realloc(ptr noundef %15, i64 noundef %19) #5
  store ptr %20, ptr %14, align 8
  %21 = icmp eq ptr %20, null
  br i1 %21, label %lxb_html_tokenizer_temp_append.exit, label %lxb_html_tokenizer_temp_realloc.exit.thread.i

lxb_html_tokenizer_temp_realloc.exit.thread.i:    ; preds = %13
  %22 = ptrtoint ptr %8 to i64
  %23 = sub i64 %22, %16
  %24 = getelementptr inbounds i8, ptr %20, i64 %23
  store ptr %24, ptr %7, align 8
  %25 = getelementptr inbounds i8, ptr %20, i64 %19
  store ptr %25, ptr %10, align 8
  %.pre = load i8, ptr %1, align 1
  br label %27

lxb_html_tokenizer_temp_append.exit:              ; preds = %13
  %26 = getelementptr inbounds i8, ptr %0, i64 232
  store i32 2, ptr %26, align 8
  br label %33

27:                                               ; preds = %6, %lxb_html_tokenizer_temp_realloc.exit.thread.i
  %28 = phi i8 [ %.pre, %lxb_html_tokenizer_temp_realloc.exit.thread.i ], [ %5, %6 ]
  %29 = phi ptr [ %24, %lxb_html_tokenizer_temp_realloc.exit.thread.i ], [ %8, %6 ]
  store i8 %28, ptr %29, align 1
  %30 = getelementptr inbounds i8, ptr %29, i64 1
  store ptr %30, ptr %7, align 8
  store ptr @lxb_html_tokenizer_state_char_ref_hexademical_start, ptr %0, align 8
  %31 = getelementptr inbounds i8, ptr %1, i64 1
  br label %33

32:                                               ; preds = %3
  store ptr @lxb_html_tokenizer_state_char_ref_decimal_start, ptr %0, align 8
  br label %33

33:                                               ; preds = %lxb_html_tokenizer_temp_append.exit, %32, %27
  %.0 = phi ptr [ %31, %27 ], [ %1, %32 ], [ %2, %lxb_html_tokenizer_temp_append.exit ]
  ret ptr %.0
}